; Function Attrs: mustprogress nounwind uwtable
define hidden void @_ZN13ArgumentCountC2EP6Symbol(ptr noundef nonnull align 8 dereferenceable(28) %0, ptr noundef %1) unnamed_addr #1 align 2 {
  store ptr %1, ptr %0, align 8
  %3 = getelementptr inbounds i8, ptr %0, i64 8
  store i8 99, ptr %3, align 8
  %4 = getelementptr inbounds i8, ptr %0, i64 16
  store i64 0, ptr %4, align 8
  %5 = getelementptr inbounds i8, ptr %0, i64 24
  store i32 0, ptr %5, align 8
  tail call void @_ZN17SignatureIterator16do_parameters_onI13ArgumentCountEEvPT_(ptr noundef nonnull align 8 dereferenceable(24) %0, ptr noundef nonnull %0)
  ret void
}